(dp1
S'a'
S'v'
sS'74d3523bb4ad839dd9bac634ce2de0d25b84a8bf4c6a40960c33e76ba3940aa93b0483ce545319ff7539c92d44f5eecbb56001dbc3c9b9e095829216423f2b7f'
p2
S"(idirectory_blob\nDirectoryBlob\np1\n(dp2\nS'reference_count'\np3\nI1\nsb."
p3
s.