(dp1
S'a'
S'v'
sS'794da7040c6aef4908a09eb0e4af681713ee9294ef6957803592e580f98db38cc85afd44e0639dba242712262b18613d9833d484fdef3bb25ffefd0389762f72'
p2
S"(igeneric_blob\nGenericBlob\np1\n(dp2\nS'type'\np3\nI0\nsS'pickled_object'\np4\nS'(idirectory_blob\\nDirectoryBlob\\np1\\n(dp2\\nb.'\np5\nsb."
p3
sS'59ded17d34170f3ec722e1bf3aaf50effec0115989130e8928f48529f58f52cd11552d63d8f80942f631ea1194da0778a1055698f76e1356623e2fc9a473043d'
p4
S"(igeneric_blob\nGenericBlob\np1\n(dp2\nS'object'\np3\n(idirectory_blob\nDirectoryBlob\np4\n(dp5\nbsS'type'\np6\nI0\nsb."
p5
sS'24b9260d3c21857d0f7821db204b0f7449f4c919b6e4cdea5d5b92bc54d34e9ba0e42dd733cf111bd591216bb44aaac3a53b0160fc550bf63a04ea72d77cfe46'
p6
S"(I0\n(dp1\nS'children'\np2\n(dp3\nS'win'\np4\nS'd1672b97929732b1e313106eebe70bfceb7ed75239b3a94944568a447973877e28fd793822bad1222089dcf8b3e550d4247b6dbbb2fcf8015a7ea7d4a0f9d0cf'\np5\nsst."
p7
sS'd7ea3180235726583572632b539a2102c5844a7ba0dfee219937a0cd70b0b4ee7a13d45550697b6afb9a242230e3c0b7693fa708a85a559d8f5b41ace77f770d'
p8
S"(I0\n(dp1\nS'children'\np2\n(dp3\nS'test_dir'\np4\nS'24b9260d3c21857d0f7821db204b0f7449f4c919b6e4cdea5d5b92bc54d34e9ba0e42dd733cf111bd591216bb44aaac3a53b0160fc550bf63a04ea72d77cfe46'\np5\nsS'works'\np6\nS'd1672b97929732b1e313106eebe70bfceb7ed75239b3a94944568a447973877e28fd793822bad1222089dcf8b3e550d4247b6dbbb2fcf8015a7ea7d4a0f9d0cf'\np7\nsst."
p9
sS'8fa0c4d740bb834fdd62553714d1effea9e44281714e8d3aed0b9ad312c39749d0d90f3b84e445fd660f75afa0def79e5f3ae2baa16215a78c32b77da3bc2a7a'
p10
S"(igeneric_blob\nGenericBlob\np1\n(dp2\nS'type'\np3\nI0\nsS'blob'\np4\nS'(idirectory_blob\\nDirectoryBlob\\np1\\n(dp2\\nb.'\np5\nsb."
p11
sS'7975878001a04f17043e73d8a6c991d70e8150a713fab65ad85be85c14b41d4352ccd6112a0b5eaff2379565ae47aa056bde50c513c1d5d4475d0a9b55739012'
p12
S"(I0\n(dp1\nS'children'\np2\n(dp3\nS'test_dir'\np4\nS'd1672b97929732b1e313106eebe70bfceb7ed75239b3a94944568a447973877e28fd793822bad1222089dcf8b3e550d4247b6dbbb2fcf8015a7ea7d4a0f9d0cf'\np5\nsst."
p13
sS'aef323c541767491989b2cc5122dca9e248a5e78ed5f9b1a75c2c3bccc34e16ae4c4586406d1dcc46eaf38767e741b94da158645a1c887974ced4c5303d4caa0'
p14
S"(I0\n(dp1\nS'children'\np2\n(dp3\nS'test_dir'\np4\nS'd1672b97929732b1e313106eebe70bfceb7ed75239b3a94944568a447973877e28fd793822bad1222089dcf8b3e550d4247b6dbbb2fcf8015a7ea7d4a0f9d0cf'\np5\nsS'works'\np6\nS'd1672b97929732b1e313106eebe70bfceb7ed75239b3a94944568a447973877e28fd793822bad1222089dcf8b3e550d4247b6dbbb2fcf8015a7ea7d4a0f9d0cf'\np7\nsst."
p15
sS'22785dc0e110d3e401b876d1db712a2c1d9aa93bb73d1d6e011b21ec37fe9402d684f2ed97307b313e8ae7339ddb89e381bfd026a198e06295073a1f4dc4c0bb'
p16
S'(igeneric_blob\nGenericBlob\np1\n(dp2\nS\'type\'\np3\nI0\nsS\'blob\'\np4\nS"(idirectory_blob\\nDirectoryBlob\\np1\\n(dp2\\nS\'reference_count\'\\np3\\nI1\\nsb."\np5\nsb.'
p17
sS'74d3523bb4ad839dd9bac634ce2de0d25b84a8bf4c6a40960c33e76ba3940aa93b0483ce545319ff7539c92d44f5eecbb56001dbc3c9b9e095829216423f2b7f'
p18
S"(idirectory_blob\nDirectoryBlob\np1\n(dp2\nS'reference_count'\np3\nI1\nsb."
p19
sS'7af20fed5751bc3098371fa9595dd8b1d86630d0a9a0dd82b565743fcf89c40d9e4307cfa2dd82a0a1f8cfa754cf61d2467d1b6e0be8275327d654ae7390a7a0'
p20
S"(I0\n(dp1\nS'children'\np2\n(dp3\nS'test_dir'\np4\nS'24b9260d3c21857d0f7821db204b0f7449f4c919b6e4cdea5d5b92bc54d34e9ba0e42dd733cf111bd591216bb44aaac3a53b0160fc550bf63a04ea72d77cfe46'\np5\nsst."
p21
sS'5d93fd6a5cd159012f99765e602bd389a5018eae703c1e24ec1590a684cfad328c52f55edbd3dada75048b63051958a8709152dbd4b44381878aa5f1de812bef'
p22
S"(I0\n(dp1\nS'children'\np2\n(dp3\nS'test_dir'\np4\nS'd1672b97929732b1e313106eebe70bfceb7ed75239b3a94944568a447973877e28fd793822bad1222089dcf8b3e550d4247b6dbbb2fcf8015a7ea7d4a0f9d0cf'\np5\nsS'jej'\np6\nS'd1672b97929732b1e313106eebe70bfceb7ed75239b3a94944568a447973877e28fd793822bad1222089dcf8b3e550d4247b6dbbb2fcf8015a7ea7d4a0f9d0cf'\np7\nsst."
p23
sS'd1672b97929732b1e313106eebe70bfceb7ed75239b3a94944568a447973877e28fd793822bad1222089dcf8b3e550d4247b6dbbb2fcf8015a7ea7d4a0f9d0cf'
p24
S"(I0\n(dp1\nS'children'\np2\n(dp3\nst."
p25
sS'cff618be37f569998e8be925f901874673de48389c0149500f2f8698b9ab494edc79da4565f1523b05d65149508762dfafef9525bc756030ae579c5d14a89bd9'
p26
S"(I0\n(dp1\nS'children'\np2\n(dp3\nS'test_dir'\np4\nS'24b9260d3c21857d0f7821db204b0f7449f4c919b6e4cdea5d5b92bc54d34e9ba0e42dd733cf111bd591216bb44aaac3a53b0160fc550bf63a04ea72d77cfe46'\np5\nsS'jej'\np6\nS'd1672b97929732b1e313106eebe70bfceb7ed75239b3a94944568a447973877e28fd793822bad1222089dcf8b3e550d4247b6dbbb2fcf8015a7ea7d4a0f9d0cf'\np7\nsst."
p27
s.